; Function Attrs: mustprogress uwtable
define void @_ZN4cvc58internal6parser11SymbolTable8popScopeEv(ptr nocapture noundef nonnull readonly align 8 dereferenceable(8) %this) local_unnamed_addr #3 align 2 personality ptr @__gxx_personality_v0 {
entry:
  %0 = load ptr, ptr %this, align 8
  %call.i = tail call noundef i32 @_ZNK4cvc57context7Context8getLevelEv(ptr noundef nonnull align 8 dereferenceable(48) %0)
  %cmp.i = icmp eq i32 %call.i, 0
  br i1 %cmp.i, label %if.then.i, label %_ZN4cvc58internal6parser11SymbolTable14Implementation8popScopeEv.exit

if.then.i:                                        ; preds = %entry
  %exception.i = tail call ptr @__cxa_allocate_exception(i64 40) #19
  tail call void @llvm.memset.p0.i64(ptr noundef nonnull align 16 dereferenceable(40) %exception.i, i8 0, i64 40, i1 false)
  invoke void @_ZN4cvc58internal6parser14ScopeExceptionC2Ev(ptr noundef nonnull align 8 dereferenceable(40) %exception.i)
          to label %invoke.cont.i unwind label %lpad.i

invoke.cont.i:                                    ; preds = %if.then.i
  tail call void @__cxa_throw(ptr nonnull %exception.i, ptr nonnull @_ZTIN4cvc58internal6parser14ScopeExceptionE, ptr nonnull @_ZN4cvc58internal6parser14ScopeExceptionD2Ev) #23
  unreachable

lpad.i:                                           ; preds = %if.then.i
  %1 = landingpad { ptr, i32 }
          cleanup
  tail call void @__cxa_free_exception(ptr nonnull %exception.i) #19
  resume { ptr, i32 } %1

_ZN4cvc58internal6parser11SymbolTable14Implementation8popScopeEv.exit: ; preds = %entry
  tail call void @_ZN4cvc57context7Context3popEv(ptr noundef nonnull align 8 dereferenceable(48) %0)
  ret void
}